; Function Attrs: mustprogress uwtable
define internal void @"_ZZNK4pbrt14BDPTIntegrator2LiENS_15RayDifferentialERNS_18SampledWavelengthsENS_7SamplerERNS_13ScratchBufferEPNS_14VisibleSurfaceEEN3$_08__invokeERNS_16StatsAccumulatorE"(ptr noundef nonnull align 8 dereferenceable(8) %accum) #1 align 2 {
entry:
  %0 = tail call align 8 ptr @llvm.threadlocal.address.p0(ptr align 8 @_ZZNK4pbrt14BDPTIntegrator2LiENS_15RayDifferentialERNS_18SampledWavelengthsENS_7SamplerERNS_13ScratchBufferEPNS_14VisibleSurfaceEE7numTrue)
  %1 = load i64, ptr %0, align 8
  %2 = tail call align 8 ptr @llvm.threadlocal.address.p0(ptr align 8 @_ZZNK4pbrt14BDPTIntegrator2LiENS_15RayDifferentialERNS_18SampledWavelengthsENS_7SamplerERNS_13ScratchBufferEPNS_14VisibleSurfaceEE5total)
  %3 = load i64, ptr %2, align 8
  tail call void @_ZN4pbrt16StatsAccumulator15ReportRareCheckEPKcfll(ptr noundef nonnull align 8 dereferenceable(8) %accum, ptr noundef nonnull @.str.162, float noundef 0x3F50624DE0000000, i64 noundef %1, i64 noundef %3)
  store i64 0, ptr %2, align 8
  store i64 0, ptr %0, align 8
  ret void
}